target datalayout = "e-m:e-p270:32:32-p271:32:32-p272:64:64-i64:64-i128:128-f80:128-n8:16:32:64-S128"
target triple = "x86_64-pc-linux-gnu"

%struct.cli_ctx_tag = type { ptr, ptr, ptr, ptr, ptr, ptr, ptr, i64, ptr, i32, i32, ptr, i32, i32, ptr, [16 x i8], ptr, ptr, ptr, ptr, ptr, ptr, %struct.timeval, i8, i8 }
%struct.timeval = type { i64, i64 }
%struct.cl_engine = type { i32, i32, i32, [2 x i32], i32, i32, i32, ptr, i32, i64, i32, i32, i64, i64, i32, i32, i32, i32, ptr, ptr, ptr, ptr, ptr, ptr, ptr, ptr, ptr, ptr, ptr, ptr, ptr, ptr, ptr, ptr, ptr, ptr, ptr, i64, ptr, %struct.crtmgr, ptr, ptr, ptr, ptr, ptr, ptr, ptr, ptr, ptr, ptr, ptr, ptr, ptr, ptr, ptr, ptr, ptr, %struct.cli_all_bc, [7 x ptr], [7 x i32], i32, i32, i32, i32, i64, i64, i64, i64, i64, ptr, ptr, ptr, ptr, ptr, ptr, ptr, ptr, ptr, i32, i32, i32, i64, i64, i64, ptr }
%struct.crtmgr = type { ptr, i32 }
%struct.cli_all_bc = type { ptr, i32, ptr, %struct.cli_environment, i32 }
%struct.cli_environment = type { i32, i32, i32, i32, i32, i32, i32, [65 x i8], [65 x i8], [65 x i8], [65 x i8], [65 x i8], [65 x i8], [65 x i8], i8, i8, i8, i8, i8, i8, i8, i8, i8 }

@.str.40 = private unnamed_addr constant [41 x i8] c"cli_scanxar: error unlinking tmpfile %s\0A\00", align 1

; Function Attrs: nounwind uwtable
define internal i32 @xar_cleanup_temp_file(ptr noundef %0, i32 noundef %1, ptr noundef %2) #0 {
  %4 = alloca ptr, align 8
  %5 = alloca i32, align 4
  %6 = alloca ptr, align 8
  %7 = alloca i32, align 4
  store ptr %0, ptr %4, align 8, !tbaa !3
  store i32 %1, ptr %5, align 4, !tbaa !8
  store ptr %2, ptr %6, align 8, !tbaa !27
  call void @llvm.lifetime.start.p0(i64 4, ptr %7) #9
  store i32 0, ptr %7, align 4, !tbaa !8
  %8 = load i32, ptr %5, align 4, !tbaa !8
  %9 = icmp sgt i32 %8, -1
  br i1 %9, label %10, label %13

10:                                               ; preds = %3
  %11 = load i32, ptr %5, align 4, !tbaa !8
  %12 = call i32 @close(i32 noundef %11)
  br label %13

13:                                               ; preds = %10, %3
  %14 = load ptr, ptr %6, align 8, !tbaa !27
  %15 = icmp ne ptr %14, null
  br i1 %15, label %16, label %32

16:                                               ; preds = %13
  %17 = load ptr, ptr %4, align 8, !tbaa !3
  %18 = getelementptr inbounds nuw %struct.cli_ctx_tag, ptr %17, i32 0, i32 6
  %19 = load ptr, ptr %18, align 8, !tbaa !47
  %20 = getelementptr inbounds nuw %struct.cl_engine, ptr %19, i32 0, i32 8
  %21 = load i32, ptr %20, align 8, !tbaa !48
  %22 = icmp ne i32 %21, 0
  br i1 %22, label %30, label %23

23:                                               ; preds = %16
  %24 = load ptr, ptr %6, align 8, !tbaa !27
  %25 = call i32 @cli_unlink(ptr noundef %24)
  %26 = icmp ne i32 %25, 0
  br i1 %26, label %27, label %29

27:                                               ; preds = %23
  %28 = load ptr, ptr %6, align 8, !tbaa !27
  call void (ptr, ...) @cli_dbgmsg(ptr noundef @.str.40, ptr noundef %28)
  store i32 10, ptr %7, align 4, !tbaa !8
  br label %29

29:                                               ; preds = %27, %23
  br label %30

30:                                               ; preds = %29, %16
  %31 = load ptr, ptr %6, align 8, !tbaa !27
  call void @free(ptr noundef %31) #9
  br label %32

32:                                               ; preds = %30, %13
  %33 = load i32, ptr %7, align 4, !tbaa !8
  call void @llvm.lifetime.end.p0(i64 4, ptr %7) #9
  ret i32 %33
}