; Function Attrs: nounwind uwtable
define internal fastcc range(i32 0, 11) i32 @xar_cleanup_temp_file(ptr noundef readonly captures(none) %0, i32 noundef %1, ptr noundef %2) unnamed_addr #0 {
  %4 = icmp sgt i32 %1, -1
  br i1 %4, label %5, label %7

5:                                                ; preds = %3
  %6 = tail call i32 @close(i32 noundef %1) #10
  br label %7

7:                                                ; preds = %5, %3
  %.not = icmp eq ptr %2, null
  br i1 %.not, label %17, label %8

8:                                                ; preds = %7
  %9 = getelementptr inbounds nuw i8, ptr %0, i64 48
  %10 = load ptr, ptr %9, align 8, !tbaa !44
  %11 = getelementptr inbounds nuw i8, ptr %10, i64 40
  %12 = load i32, ptr %11, align 8, !tbaa !45
  %.not9 = icmp eq i32 %12, 0
  br i1 %.not9, label %13, label %16

13:                                               ; preds = %8
  %14 = tail call i32 @cli_unlink(ptr noundef nonnull %2) #10
  %.not10 = icmp eq i32 %14, 0
  br i1 %.not10, label %16, label %15

15:                                               ; preds = %13
  tail call void (ptr, ...) @cli_dbgmsg(ptr noundef nonnull @.str.40, ptr noundef nonnull %2) #10
  br label %16

16:                                               ; preds = %13, %15, %8
  %.1 = phi i32 [ 0, %8 ], [ 10, %15 ], [ 0, %13 ]
  tail call void @free(ptr noundef nonnull %2) #10
  br label %17

17:                                               ; preds = %16, %7
  %.0 = phi i32 [ %.1, %16 ], [ 0, %7 ]
  ret i32 %.0
}